target datalayout = "e-m:e-p270:32:32-p271:32:32-p272:64:64-i64:64-i128:128-f80:128-n8:16:32:64-S128"
target triple = "x86_64-pc-linux-gnu"

; Function Attrs: mustprogress nounwind uwtable
define hidden i32 @mbedtls_asn1_get_tag(ptr noundef %0, ptr noundef %1, ptr noundef %2, i32 noundef %3) #0 {
  %5 = alloca i32, align 4
  %6 = alloca ptr, align 8
  %7 = alloca ptr, align 8
  %8 = alloca ptr, align 8
  %9 = alloca i32, align 4
  store ptr %0, ptr %6, align 8, !tbaa !3
  store ptr %1, ptr %7, align 8, !tbaa !8
  store ptr %2, ptr %8, align 8, !tbaa !10
  store i32 %3, ptr %9, align 4, !tbaa !15
  %10 = load ptr, ptr %7, align 8, !tbaa !8
  %11 = load ptr, ptr %6, align 8, !tbaa !3
  %12 = load ptr, ptr %11, align 8, !tbaa !8
  %13 = ptrtoint ptr %10 to i64
  %14 = ptrtoint ptr %12 to i64
  %15 = sub i64 %13, %14
  %16 = icmp slt i64 %15, 1
  br i1 %16, label %17, label %18

17:                                               ; preds = %4
  store i32 -96, ptr %5, align 4
  br label %34

18:                                               ; preds = %4
  %19 = load ptr, ptr %6, align 8, !tbaa !3
  %20 = load ptr, ptr %19, align 8, !tbaa !8
  %21 = load i8, ptr %20, align 1, !tbaa !12
  %22 = zext i8 %21 to i32
  %23 = load i32, ptr %9, align 4, !tbaa !15
  %24 = icmp ne i32 %22, %23
  br i1 %24, label %25, label %26

25:                                               ; preds = %18
  store i32 -98, ptr %5, align 4
  br label %34

26:                                               ; preds = %18
  %27 = load ptr, ptr %6, align 8, !tbaa !3
  %28 = load ptr, ptr %27, align 8, !tbaa !8
  %29 = getelementptr inbounds nuw i8, ptr %28, i32 1
  store ptr %29, ptr %27, align 8, !tbaa !8
  %30 = load ptr, ptr %6, align 8, !tbaa !3
  %31 = load ptr, ptr %7, align 8, !tbaa !8
  %32 = load ptr, ptr %8, align 8, !tbaa !10
  %33 = call i32 @mbedtls_asn1_get_len(ptr noundef %30, ptr noundef %31, ptr noundef %32)
  store i32 %33, ptr %5, align 4
  br label %34

34:                                               ; preds = %26, %25, %17
  %35 = load i32, ptr %5, align 4
  ret i32 %35
}