; Function Attrs: mustprogress nofree norecurse nosync nounwind willreturn memory(read, argmem: readwrite, inaccessiblemem: none) uwtable
define hidden range(i32 -100, 1) i32 @mbedtls_asn1_get_tag(ptr noundef captures(none) %0, ptr noundef %1, ptr noundef writeonly captures(none) %2, i32 noundef %3) local_unnamed_addr #0 {
  %5 = load ptr, ptr %0, align 8, !tbaa !3
  %6 = ptrtoint ptr %1 to i64
  %7 = ptrtoint ptr %5 to i64
  %8 = sub i64 %6, %7
  %9 = icmp slt i64 %8, 1
  br i1 %9, label %16, label %10

10:                                               ; preds = %4
  %11 = load i8, ptr %5, align 1, !tbaa !8
  %12 = zext i8 %11 to i32
  %.not = icmp eq i32 %3, %12
  br i1 %.not, label %13, label %16

13:                                               ; preds = %10
  %14 = getelementptr inbounds nuw i8, ptr %5, i64 1
  store ptr %14, ptr %0, align 8, !tbaa !3
  %15 = tail call i32 @mbedtls_asn1_get_len(ptr noundef nonnull %0, ptr noundef %1, ptr noundef %2)
  br label %16

16:                                               ; preds = %10, %4, %13
  %.0 = phi i32 [ %15, %13 ], [ -96, %4 ], [ -98, %10 ]
  ret i32 %.0
}